; Function Attrs: mustprogress uwtable
define noundef i32 @ucol_strcoll_75(ptr noundef %coll, ptr noundef %source, i32 noundef %sourceLength, ptr noundef %target, i32 noundef %targetLength) local_unnamed_addr #0 {
entry:
  %status = alloca i32, align 4
  store i32 0, ptr %status, align 4
  %vtable = load ptr, ptr %coll, align 8
  %vfn = getelementptr inbounds i8, ptr %vtable, i64 88
  %0 = load ptr, ptr %vfn, align 8
  %call1 = call noundef i32 %0(ptr noundef nonnull align 8 dereferenceable(8) %coll, ptr noundef %source, i32 noundef %sourceLength, ptr noundef %target, i32 noundef %targetLength, ptr noundef nonnull align 4 dereferenceable(4) %status)
  ret i32 %call1
}